; Function Attrs: mustprogress uwtable
define void @_ZN6icu_776NFRule23setDecimalFormatSymbolsERKNS_20DecimalFormatSymbolsER10UErrorCode(ptr noundef nonnull readonly align 8 captures(none) dereferenceable(112) %0, ptr noundef nonnull align 8 dereferenceable(2579) %1, ptr noundef nonnull align 4 dereferenceable(4) %2) local_unnamed_addr #0 align 2 {
  %4 = getelementptr inbounds nuw i8, ptr %0, i64 80
  %5 = load ptr, ptr %4, align 8, !tbaa !38
  %.not = icmp eq ptr %5, null
  br i1 %.not, label %7, label %6

6:                                                ; preds = %3
  tail call void @_ZN6icu_7714NFSubstitution23setDecimalFormatSymbolsERKNS_20DecimalFormatSymbolsER10UErrorCode(ptr noundef nonnull align 8 dereferenceable(32) %5, ptr noundef nonnull align 8 dereferenceable(2579) %1, ptr noundef nonnull align 4 dereferenceable(4) %2)
  br label %7

7:                                                ; preds = %6, %3
  %8 = getelementptr inbounds nuw i8, ptr %0, i64 88
  %9 = load ptr, ptr %8, align 8, !tbaa !39
  %.not6 = icmp eq ptr %9, null
  br i1 %.not6, label %11, label %10

10:                                               ; preds = %7
  tail call void @_ZN6icu_7714NFSubstitution23setDecimalFormatSymbolsERKNS_20DecimalFormatSymbolsER10UErrorCode(ptr noundef nonnull align 8 dereferenceable(32) %9, ptr noundef nonnull align 8 dereferenceable(2579) %1, ptr noundef nonnull align 4 dereferenceable(4) %2)
  br label %11

11:                                               ; preds = %10, %7
  ret void
}